target datalayout = "e-m:e-p270:32:32-p271:32:32-p272:64:64-i64:64-i128:128-f80:128-n8:16:32:64-S128"
target triple = "x86_64-pc-linux-gnu"

%"struct.open_spiel::phantom_go::PhantomGoBoard::Chain" = type { i32, i16, i16, i16 }

; Function Attrs: mustprogress nounwind uwtable
define void @_ZN10open_spiel10phantom_go14PhantomGoBoard5Chain5mergeERKS2_(ptr noundef nonnull align 4 dereferenceable(12) %0, ptr noundef nonnull align 4 dereferenceable(12) %1) #4 align 2 {
  %3 = alloca ptr, align 8
  %4 = alloca ptr, align 8
  store ptr %0, ptr %3, align 8
  store ptr %1, ptr %4, align 8
  %5 = load ptr, ptr %3, align 8
  %6 = load ptr, ptr %4, align 8
  %7 = getelementptr inbounds nuw %"struct.open_spiel::phantom_go::PhantomGoBoard::Chain", ptr %6, i32 0, i32 2
  %8 = load i16, ptr %7, align 2
  %9 = zext i16 %8 to i32
  %10 = getelementptr inbounds nuw %"struct.open_spiel::phantom_go::PhantomGoBoard::Chain", ptr %5, i32 0, i32 2
  %11 = load i16, ptr %10, align 2
  %12 = zext i16 %11 to i32
  %13 = add nsw i32 %12, %9
  %14 = trunc i32 %13 to i16
  store i16 %14, ptr %10, align 2
  %15 = load ptr, ptr %4, align 8
  %16 = getelementptr inbounds nuw %"struct.open_spiel::phantom_go::PhantomGoBoard::Chain", ptr %15, i32 0, i32 3
  %17 = load i16, ptr %16, align 4
  %18 = zext i16 %17 to i32
  %19 = getelementptr inbounds nuw %"struct.open_spiel::phantom_go::PhantomGoBoard::Chain", ptr %5, i32 0, i32 3
  %20 = load i16, ptr %19, align 4
  %21 = zext i16 %20 to i32
  %22 = add nsw i32 %21, %18
  %23 = trunc i32 %22 to i16
  store i16 %23, ptr %19, align 4
  %24 = load ptr, ptr %4, align 8
  %25 = getelementptr inbounds nuw %"struct.open_spiel::phantom_go::PhantomGoBoard::Chain", ptr %24, i32 0, i32 1
  %26 = load i16, ptr %25, align 4
  %27 = zext i16 %26 to i32
  %28 = getelementptr inbounds nuw %"struct.open_spiel::phantom_go::PhantomGoBoard::Chain", ptr %5, i32 0, i32 1
  %29 = load i16, ptr %28, align 4
  %30 = zext i16 %29 to i32
  %31 = add nsw i32 %30, %27
  %32 = trunc i32 %31 to i16
  store i16 %32, ptr %28, align 4
  %33 = load ptr, ptr %4, align 8
  %34 = getelementptr inbounds nuw %"struct.open_spiel::phantom_go::PhantomGoBoard::Chain", ptr %33, i32 0, i32 0
  %35 = load i32, ptr %34, align 4
  %36 = getelementptr inbounds nuw %"struct.open_spiel::phantom_go::PhantomGoBoard::Chain", ptr %5, i32 0, i32 0
  %37 = load i32, ptr %36, align 4
  %38 = add i32 %37, %35
  store i32 %38, ptr %36, align 4
  ret void
}