; Function Attrs: mustprogress nofree norecurse nosync nounwind willreturn memory(argmem: readwrite) uwtable
define void @_ZN10open_spiel10phantom_go14PhantomGoBoard5Chain5mergeERKS2_(ptr nocapture noundef nonnull align 4 dereferenceable(12) %0, ptr nocapture noundef nonnull readonly align 4 dereferenceable(12) %1) local_unnamed_addr #4 align 2 {
  %3 = getelementptr inbounds nuw i8, ptr %1, i64 6
  %4 = load i16, ptr %3, align 2
  %5 = getelementptr inbounds nuw i8, ptr %0, i64 6
  %6 = load i16, ptr %5, align 2
  %7 = add i16 %6, %4
  store i16 %7, ptr %5, align 2
  %8 = getelementptr inbounds nuw i8, ptr %1, i64 8
  %9 = load i16, ptr %8, align 4
  %10 = getelementptr inbounds nuw i8, ptr %0, i64 8
  %11 = load i16, ptr %10, align 4
  %12 = add i16 %11, %9
  store i16 %12, ptr %10, align 4
  %13 = getelementptr inbounds nuw i8, ptr %1, i64 4
  %14 = load i16, ptr %13, align 4
  %15 = getelementptr inbounds nuw i8, ptr %0, i64 4
  %16 = load i16, ptr %15, align 4
  %17 = add i16 %16, %14
  store i16 %17, ptr %15, align 4
  %18 = load i32, ptr %1, align 4
  %19 = load i32, ptr %0, align 4
  %20 = add i32 %19, %18
  store i32 %20, ptr %0, align 4
  ret void
}